target datalayout = "e-m:e-p270:32:32-p271:32:32-p272:64:64-i64:64-i128:128-f80:128-n8:16:32:64-S128"
target triple = "x86_64-pc-linux-gnu"

%union.pthread_mutex_t = type { %struct.__pthread_mutex_s }
%struct.__pthread_mutex_s = type { i32, i32, i32, i32, i32, i16, i16, %struct.__pthread_internal_list }
%struct.__pthread_internal_list = type { ptr, ptr }
%struct.wolfSSL_RefWithMutex = type { %union.pthread_mutex_t, i32 }
%struct.WOLFSSL_CTX = type <{ ptr, %struct.wolfSSL_RefWithMutex, i32, [4 x i8], %struct.WOLFSSL_BUFFER_INFO, %struct.WOLFSSL_BUFFER_INFO, ptr, ptr, i32, [4 x i8], ptr, i8, i8, [2 x i8], i32, i32, [4 x i8], ptr, ptr, ptr, i8, i16, i8, i8, i8, i16, i16, i16, i16, [2 x i8], i64, ptr, ptr, ptr, ptr, i32, i32, i16, [2 x i8], i32, [10 x i16], i8, [3 x i8], ptr, ptr, i32, [4 x i8], ptr, i8, [7 x i8] }>
%struct.WOLFSSL_BUFFER_INFO = type { ptr, i32 }
%struct.DerBuffer = type { ptr, ptr, i32, i32, i32 }
%struct.WOLFSSL = type <{ ptr, ptr, ptr, ptr, [48 x i8], [48 x i8], ptr, ptr, ptr, ptr, ptr, ptr, ptr, ptr, ptr, ptr, ptr, ptr, ptr, i32, [4 x i8], %struct.WOLFSSL_CIPHER, ptr, %struct.Ciphers, %struct.Ciphers, [8 x i8], %struct.Buffers, ptr, ptr, %struct.WOLFSSL_ALERT_HISTORY, %struct.WOLFSSL_ALERT, i32, i32, i32, i32, i32, i32, i32, i16, [2 x i8], i32, i8, %struct.RecordLayerHeader, %struct.MsgsReceived, %struct.ProtocolVersion, %struct.ProtocolVersion, %struct.CipherSpecs, [2 x i8], %struct.Keys, %struct.Options, ptr, i8, i8, i16, [10 x i16], i8, i8, i16, i16, [38 x i8], i32, i32, [4 x i8], ptr, i8, i8, [6 x i8], ptr, ptr, i16, i8, i8, i32, i8, [3 x i8], i32, %struct.OneTimeAuth, ptr }>
%struct.WOLFSSL_CIPHER = type { i8, i8, ptr }
%struct.Ciphers = type { ptr, ptr, ptr, ptr, i8, i8 }
%struct.Buffers = type { %struct.bufferStatic, %struct.bufferStatic, %struct.WOLFSSL_BUFFER_INFO, %struct.WOLFSSL_BUFFER_INFO, %struct.WOLFSSL_BUFFER_INFO, %struct.WOLFSSL_BUFFER_INFO, i32, i32, i8, i8, i8, i8, %struct.WOLFSSL_BUFFER_INFO, %struct.WOLFSSL_BUFFER_INFO, %struct.WOLFSSL_BUFFER_INFO, %struct.WOLFSSL_BUFFER_INFO, ptr, ptr, ptr, i8, i8, i32, i32, ptr, i32, [1 x ptr] }
%struct.bufferStatic = type { [5 x i8], ptr, i32, i32, i32, i8, i8 }
%struct.WOLFSSL_ALERT_HISTORY = type { %struct.WOLFSSL_ALERT, %struct.WOLFSSL_ALERT }
%struct.WOLFSSL_ALERT = type { i32, i32 }
%struct.RecordLayerHeader = type { i8, i8, i8, [2 x i8] }
%struct.MsgsReceived = type { i32 }
%struct.ProtocolVersion = type { i8, i8 }
%struct.CipherSpecs = type { i16, i16, i16, i16, i8, i8, i8, i8, i8, i8, i8, i8 }
%struct.Keys = type { [64 x i8], [64 x i8], [32 x i8], [32 x i8], [16 x i8], [16 x i8], [8 x i8], [12 x i8], [12 x i8], i32, i32, i32, i32, i32, i32, i8, i8, i8, i8 }
%struct.Options = type { i64, i64, i8, i8, i8, i8, i8, i8, i8, i8, i8, i8, i8, i8, i8, i8, i8, i8, i8, i8, i8, i8, i8, i16, i16, i16, i16, i16, i8 }
%struct.OneTimeAuth = type { ptr, i8 }

; Function Attrs: nounwind uwtable
define internal i32 @ws_ctx_ssl_set_tmp_dh(ptr noundef %0, ptr noundef %1, ptr noundef %2, i64 noundef %3, i32 noundef %4) #0 {
  %6 = alloca ptr, align 8
  %7 = alloca ptr, align 8
  %8 = alloca ptr, align 8
  %9 = alloca i64, align 8
  %10 = alloca i32, align 4
  %11 = alloca ptr, align 8
  %12 = alloca i32, align 4
  %13 = alloca i32, align 4
  %14 = alloca i32, align 4
  %15 = alloca i32, align 4
  %16 = alloca ptr, align 8
  %17 = alloca ptr, align 8
  %18 = alloca ptr, align 8
  %19 = alloca ptr, align 8
  %20 = alloca ptr, align 8
  store ptr %0, ptr %6, align 8, !tbaa !24
  store ptr %1, ptr %7, align 8, !tbaa !61
  store ptr %2, ptr %8, align 8, !tbaa !21
  store i64 %3, ptr %9, align 8, !tbaa !22
  store i32 %4, ptr %10, align 4, !tbaa !7
  call void @llvm.lifetime.start.p0(i64 8, ptr %11) #9
  store ptr null, ptr %11, align 8, !tbaa !37
  call void @llvm.lifetime.start.p0(i64 4, ptr %12) #9
  store i32 1, ptr %12, align 4, !tbaa !7
  call void @llvm.lifetime.start.p0(i64 4, ptr %13) #9
  call void @llvm.lifetime.start.p0(i64 4, ptr %14) #9
  store i32 513, ptr %14, align 4, !tbaa !7
  call void @llvm.lifetime.start.p0(i64 4, ptr %15) #9
  store i32 513, ptr %15, align 4, !tbaa !7
  call void @llvm.lifetime.start.p0(i64 8, ptr %16) #9
  store ptr null, ptr %16, align 8, !tbaa !21
  call void @llvm.lifetime.start.p0(i64 8, ptr %17) #9
  store ptr null, ptr %17, align 8, !tbaa !21
  call void @llvm.lifetime.start.p0(i64 8, ptr %18) #9
  %21 = load ptr, ptr %6, align 8, !tbaa !24
  %22 = icmp ne ptr %21, null
  br i1 %22, label %23, label %27

23:                                               ; preds = %5
  %24 = load ptr, ptr %6, align 8, !tbaa !24
  %25 = getelementptr inbounds nuw %struct.WOLFSSL_CTX, ptr %24, i32 0, i32 19
  %26 = load ptr, ptr %25, align 8, !tbaa !136
  br label %37

27:                                               ; preds = %5
  %28 = load ptr, ptr %7, align 8, !tbaa !61
  %29 = icmp ne ptr %28, null
  br i1 %29, label %30, label %34

30:                                               ; preds = %27
  %31 = load ptr, ptr %7, align 8, !tbaa !61
  %32 = getelementptr inbounds nuw %struct.WOLFSSL, ptr %31, i32 0, i32 12
  %33 = load ptr, ptr %32, align 16, !tbaa !186
  br label %35

34:                                               ; preds = %27
  br label %35

35:                                               ; preds = %34, %30
  %36 = phi ptr [ %33, %30 ], [ null, %34 ]
  br label %37

37:                                               ; preds = %35, %23
  %38 = phi ptr [ %26, %23 ], [ %36, %35 ]
  store ptr %38, ptr %18, align 8, !tbaa !3
  %39 = load ptr, ptr %6, align 8, !tbaa !24
  %40 = icmp eq ptr %39, null
  br i1 %40, label %41, label %44

41:                                               ; preds = %37
  %42 = load ptr, ptr %7, align 8, !tbaa !61
  %43 = icmp eq ptr %42, null
  br i1 %43, label %47, label %44

44:                                               ; preds = %41, %37
  %45 = load ptr, ptr %8, align 8, !tbaa !21
  %46 = icmp eq ptr %45, null
  br i1 %46, label %47, label %48

47:                                               ; preds = %44, %41
  store i32 -173, ptr %12, align 4, !tbaa !7
  br label %48

48:                                               ; preds = %47, %44
  %49 = load i32, ptr %12, align 4, !tbaa !7
  %50 = icmp eq i32 %49, 1
  br i1 %50, label %51, label %59

51:                                               ; preds = %48
  %52 = load i32, ptr %10, align 4, !tbaa !7
  %53 = icmp ne i32 %52, 2
  br i1 %53, label %54, label %59

54:                                               ; preds = %51
  %55 = load i32, ptr %10, align 4, !tbaa !7
  %56 = icmp ne i32 %55, 1
  br i1 %56, label %57, label %58

57:                                               ; preds = %54
  store i32 -462, ptr %12, align 4, !tbaa !7
  br label %58

58:                                               ; preds = %57, %54
  br label %59

59:                                               ; preds = %58, %51, %48
  %60 = load i32, ptr %12, align 4, !tbaa !7
  %61 = icmp eq i32 %60, 1
  br i1 %61, label %62, label %81

62:                                               ; preds = %59
  %63 = load i32, ptr %10, align 4, !tbaa !7
  %64 = icmp ne i32 %63, 1
  br i1 %64, label %65, label %81

65:                                               ; preds = %62
  %66 = load ptr, ptr %18, align 8, !tbaa !3
  %67 = call i32 @AllocDer(ptr noundef %11, i32 noundef 0, i32 noundef 3, ptr noundef %66)
  store i32 %67, ptr %13, align 4, !tbaa !7
  %68 = load i32, ptr %13, align 4, !tbaa !7
  %69 = icmp eq i32 %68, 0
  br i1 %69, label %70, label %78

70:                                               ; preds = %65
  %71 = load ptr, ptr %8, align 8, !tbaa !21
  %72 = load ptr, ptr %11, align 8, !tbaa !37
  %73 = getelementptr inbounds nuw %struct.DerBuffer, ptr %72, i32 0, i32 0
  store ptr %71, ptr %73, align 8, !tbaa !38
  %74 = load i64, ptr %9, align 8, !tbaa !22
  %75 = trunc i64 %74 to i32
  %76 = load ptr, ptr %11, align 8, !tbaa !37
  %77 = getelementptr inbounds nuw %struct.DerBuffer, ptr %76, i32 0, i32 2
  store i32 %75, ptr %77, align 8, !tbaa !40
  br label %80

78:                                               ; preds = %65
  %79 = load i32, ptr %13, align 4, !tbaa !7
  store i32 %79, ptr %12, align 4, !tbaa !7
  br label %80

80:                                               ; preds = %78, %70
  br label %81

81:                                               ; preds = %80, %62, %59
  %82 = load i32, ptr %12, align 4, !tbaa !7
  %83 = icmp eq i32 %82, 1
  br i1 %83, label %84, label %98

84:                                               ; preds = %81
  %85 = load i32, ptr %14, align 4, !tbaa !7
  %86 = zext i32 %85 to i64
  %87 = call ptr @wolfSSL_Malloc(i64 noundef %86)
  store ptr %87, ptr %16, align 8, !tbaa !21
  %88 = load i32, ptr %15, align 4, !tbaa !7
  %89 = zext i32 %88 to i64
  %90 = call ptr @wolfSSL_Malloc(i64 noundef %89)
  store ptr %90, ptr %17, align 8, !tbaa !21
  %91 = load ptr, ptr %16, align 8, !tbaa !21
  %92 = icmp eq ptr %91, null
  br i1 %92, label %96, label %93

93:                                               ; preds = %84
  %94 = load ptr, ptr %17, align 8, !tbaa !21
  %95 = icmp eq ptr %94, null
  br i1 %95, label %96, label %97

96:                                               ; preds = %93, %84
  store i32 -125, ptr %12, align 4, !tbaa !7
  br label %97

97:                                               ; preds = %96, %93
  br label %98

98:                                               ; preds = %97, %81
  %99 = load i32, ptr %12, align 4, !tbaa !7
  %100 = icmp eq i32 %99, 1
  br i1 %100, label %101, label %122

101:                                              ; preds = %98
  %102 = load i32, ptr %10, align 4, !tbaa !7
  %103 = icmp eq i32 %102, 1
  br i1 %103, label %104, label %122

104:                                              ; preds = %101
  %105 = load ptr, ptr %8, align 8, !tbaa !21
  %106 = load i64, ptr %9, align 8, !tbaa !22
  %107 = load ptr, ptr %18, align 8, !tbaa !3
  %108 = call i32 @PemToDer(ptr noundef %105, i64 noundef %106, i32 noundef 3, ptr noundef %11, ptr noundef %107, ptr noundef null, ptr noundef null)
  store i32 %108, ptr %13, align 4, !tbaa !7
  %109 = load i32, ptr %13, align 4, !tbaa !7
  %110 = icmp slt i32 %109, 0
  br i1 %110, label %111, label %116

111:                                              ; preds = %104
  %112 = load ptr, ptr %8, align 8, !tbaa !21
  %113 = load i64, ptr %9, align 8, !tbaa !22
  %114 = load ptr, ptr %18, align 8, !tbaa !3
  %115 = call i32 @PemToDer(ptr noundef %112, i64 noundef %113, i32 noundef 26, ptr noundef %11, ptr noundef %114, ptr noundef null, ptr noundef null)
  store i32 %115, ptr %13, align 4, !tbaa !7
  br label %116

116:                                              ; preds = %111, %104
  %117 = load i32, ptr %13, align 4, !tbaa !7
  %118 = icmp slt i32 %117, 0
  br i1 %118, label %119, label %121

119:                                              ; preds = %116
  %120 = load i32, ptr %13, align 4, !tbaa !7
  store i32 %120, ptr %12, align 4, !tbaa !7
  br label %121

121:                                              ; preds = %119, %116
  br label %122

122:                                              ; preds = %121, %101, %98
  %123 = load i32, ptr %12, align 4, !tbaa !7
  %124 = icmp eq i32 %123, 1
  br i1 %124, label %125, label %156

125:                                              ; preds = %122
  %126 = load ptr, ptr %11, align 8, !tbaa !37
  %127 = getelementptr inbounds nuw %struct.DerBuffer, ptr %126, i32 0, i32 0
  %128 = load ptr, ptr %127, align 8, !tbaa !38
  %129 = load ptr, ptr %11, align 8, !tbaa !37
  %130 = getelementptr inbounds nuw %struct.DerBuffer, ptr %129, i32 0, i32 2
  %131 = load i32, ptr %130, align 8, !tbaa !40
  %132 = load ptr, ptr %16, align 8, !tbaa !21
  %133 = load ptr, ptr %17, align 8, !tbaa !21
  %134 = call i32 @wc_DhParamsLoad(ptr noundef %128, i32 noundef %131, ptr noundef %132, ptr noundef %14, ptr noundef %133, ptr noundef %15)
  %135 = icmp slt i32 %134, 0
  br i1 %135, label %136, label %137

136:                                              ; preds = %125
  store i32 -462, ptr %12, align 4, !tbaa !7
  br label %155

137:                                              ; preds = %125
  %138 = load ptr, ptr %7, align 8, !tbaa !61
  %139 = icmp ne ptr %138, null
  br i1 %139, label %140, label %147

140:                                              ; preds = %137
  %141 = load ptr, ptr %7, align 8, !tbaa !61
  %142 = load ptr, ptr %16, align 8, !tbaa !21
  %143 = load i32, ptr %14, align 4, !tbaa !7
  %144 = load ptr, ptr %17, align 8, !tbaa !21
  %145 = load i32, ptr %15, align 4, !tbaa !7
  %146 = call i32 @wolfssl_set_tmp_dh(ptr noundef %141, ptr noundef %142, i32 noundef %143, ptr noundef %144, i32 noundef %145)
  store i32 %146, ptr %12, align 4, !tbaa !7
  br label %154

147:                                              ; preds = %137
  %148 = load ptr, ptr %6, align 8, !tbaa !24
  %149 = load ptr, ptr %16, align 8, !tbaa !21
  %150 = load i32, ptr %14, align 4, !tbaa !7
  %151 = load ptr, ptr %17, align 8, !tbaa !21
  %152 = load i32, ptr %15, align 4, !tbaa !7
  %153 = call i32 @wolfssl_ctx_set_tmp_dh(ptr noundef %148, ptr noundef %149, i32 noundef %150, ptr noundef %151, i32 noundef %152)
  store i32 %153, ptr %12, align 4, !tbaa !7
  br label %154

154:                                              ; preds = %147, %140
  br label %155

155:                                              ; preds = %154, %136
  br label %156

156:                                              ; preds = %155, %122
  call void @FreeDer(ptr noundef %11)
  %157 = load i32, ptr %12, align 4, !tbaa !7
  %158 = icmp ne i32 %157, 1
  br i1 %158, label %159, label %178

159:                                              ; preds = %156
  br label %160

160:                                              ; preds = %159
  call void @llvm.lifetime.start.p0(i64 8, ptr %19) #9
  %161 = load ptr, ptr %16, align 8, !tbaa !21
  store ptr %161, ptr %19, align 8, !tbaa !3
  %162 = load ptr, ptr %19, align 8, !tbaa !3
  %163 = icmp ne ptr %162, null
  br i1 %163, label %164, label %166

164:                                              ; preds = %160
  %165 = load ptr, ptr %19, align 8, !tbaa !3
  call void @wolfSSL_Free(ptr noundef %165)
  br label %166

166:                                              ; preds = %164, %160
  call void @llvm.lifetime.end.p0(i64 8, ptr %19) #9
  br label %167

167:                                              ; preds = %166
  br label %168

168:                                              ; preds = %167
  br label %169

169:                                              ; preds = %168
  call void @llvm.lifetime.start.p0(i64 8, ptr %20) #9
  %170 = load ptr, ptr %17, align 8, !tbaa !21
  store ptr %170, ptr %20, align 8, !tbaa !3
  %171 = load ptr, ptr %20, align 8, !tbaa !3
  %172 = icmp ne ptr %171, null
  br i1 %172, label %173, label %175

173:                                              ; preds = %169
  %174 = load ptr, ptr %20, align 8, !tbaa !3
  call void @wolfSSL_Free(ptr noundef %174)
  br label %175

175:                                              ; preds = %173, %169
  call void @llvm.lifetime.end.p0(i64 8, ptr %20) #9
  br label %176

176:                                              ; preds = %175
  br label %177

177:                                              ; preds = %176
  br label %178

178:                                              ; preds = %177, %156
  %179 = load i32, ptr %12, align 4, !tbaa !7
  call void @llvm.lifetime.end.p0(i64 8, ptr %18) #9
  call void @llvm.lifetime.end.p0(i64 8, ptr %17) #9
  call void @llvm.lifetime.end.p0(i64 8, ptr %16) #9
  call void @llvm.lifetime.end.p0(i64 4, ptr %15) #9
  call void @llvm.lifetime.end.p0(i64 4, ptr %14) #9
  call void @llvm.lifetime.end.p0(i64 4, ptr %13) #9
  call void @llvm.lifetime.end.p0(i64 4, ptr %12) #9
  call void @llvm.lifetime.end.p0(i64 8, ptr %11) #9
  ret i32 %179
}