; Function Attrs: nounwind uwtable
define internal fastcc i32 @ws_ctx_ssl_set_tmp_dh(ptr noundef captures(address_is_null) %0, ptr noundef %1, ptr noundef %2, i64 noundef %3, i32 noundef %4) unnamed_addr #0 {
  %6 = alloca ptr, align 8
  %7 = alloca i32, align 4
  %8 = alloca i32, align 4
  call void @llvm.lifetime.start.p0(i64 8, ptr nonnull %6) #22
  store ptr null, ptr %6, align 8, !tbaa !31
  call void @llvm.lifetime.start.p0(i64 4, ptr nonnull %7) #22
  store i32 513, ptr %7, align 4, !tbaa !3
  call void @llvm.lifetime.start.p0(i64 4, ptr nonnull %8) #22
  store i32 513, ptr %8, align 4, !tbaa !3
  %.not = icmp eq ptr %0, null
  br i1 %.not, label %12, label %9

9:                                                ; preds = %5
  %10 = getelementptr inbounds nuw i8, ptr %0, i64 160
  %11 = load ptr, ptr %10, align 8, !tbaa !116
  br label %16

12:                                               ; preds = %5
  %.not71 = icmp eq ptr %1, null
  br i1 %.not71, label %16, label %13

13:                                               ; preds = %12
  %14 = getelementptr inbounds nuw i8, ptr %1, i64 176
  %15 = load ptr, ptr %14, align 16, !tbaa !164
  br label %16

16:                                               ; preds = %13, %12, %9
  %17 = phi ptr [ %11, %9 ], [ %15, %13 ], [ null, %12 ]
  %18 = icmp ne ptr %0, null
  %19 = icmp ne ptr %1, null
  %or.cond.not75 = or i1 %18, %19
  %20 = icmp ne ptr %2, null
  %or.cond3.not = and i1 %or.cond.not75, %20
  %21 = icmp ne i32 %4, 1
  %22 = add i32 %4, -3
  %23 = icmp ult i32 %22, -2
  %spec.select = select i1 %23, i32 -462, i32 1
  %spec.store.select = select i1 %or.cond3.not, i32 %spec.select, i32 -173
  %24 = icmp eq i32 %spec.store.select, 1
  %or.cond7 = and i1 %21, %24
  br i1 %or.cond7, label %25, label %31

25:                                               ; preds = %16
  %26 = call i32 @AllocDer(ptr noundef nonnull %6, i32 noundef 0, i32 noundef 3, ptr noundef %17) #22
  %27 = icmp eq i32 %26, 0
  br i1 %27, label %.thread, label %31

.thread:                                          ; preds = %25
  %28 = load ptr, ptr %6, align 8, !tbaa !31
  store ptr %2, ptr %28, align 8, !tbaa !32
  %29 = trunc i64 %3 to i32
  %30 = getelementptr inbounds nuw i8, ptr %28, i64 16
  store i32 %29, ptr %30, align 8, !tbaa !34
  br label %33

31:                                               ; preds = %25, %16
  %.1 = phi i32 [ %spec.store.select, %16 ], [ %26, %25 ]
  %32 = icmp eq i32 %.1, 1
  br i1 %32, label %33, label %.thread136

.thread136:                                       ; preds = %31
  call void @FreeDer(ptr noundef nonnull %6) #22
  br label %63

33:                                               ; preds = %31, %.thread
  %34 = call ptr @wolfSSL_Malloc(i64 noundef 513) #22
  %35 = call ptr @wolfSSL_Malloc(i64 noundef 513) #22
  %36 = icmp ne ptr %34, null
  %37 = icmp ne ptr %35, null
  %or.cond9.not = select i1 %36, i1 %37, i1 false
  %38 = icmp eq i32 %4, 1
  %or.cond11 = and i1 %38, %or.cond9.not
  br i1 %or.cond11, label %39, label %45

39:                                               ; preds = %33
  %40 = call i32 @PemToDer(ptr noundef %2, i64 noundef %3, i32 noundef 3, ptr noundef nonnull %6, ptr noundef %17, ptr noundef null, ptr noundef null) #22
  %41 = icmp slt i32 %40, 0
  br i1 %41, label %42, label %.thread96

42:                                               ; preds = %39
  %43 = call i32 @PemToDer(ptr noundef %2, i64 noundef %3, i32 noundef 26, ptr noundef nonnull %6, ptr noundef %17, ptr noundef null, ptr noundef null) #22
  %44 = icmp slt i32 %43, 0
  br i1 %44, label %.thread126, label %.thread96

45:                                               ; preds = %33
  br i1 %or.cond9.not, label %.thread96, label %60

.thread96:                                        ; preds = %39, %42, %45
  %46 = load ptr, ptr %6, align 8, !tbaa !31
  %47 = load ptr, ptr %46, align 8, !tbaa !32
  %48 = getelementptr inbounds nuw i8, ptr %46, i64 16
  %49 = load i32, ptr %48, align 8, !tbaa !34
  %50 = call i32 @wc_DhParamsLoad(ptr noundef %47, i32 noundef %49, ptr noundef nonnull %34, ptr noundef nonnull %7, ptr noundef nonnull %35, ptr noundef nonnull %8) #22
  %51 = icmp slt i32 %50, 0
  br i1 %51, label %.thread126, label %52

52:                                               ; preds = %.thread96
  %.not76 = icmp eq ptr %1, null
  %53 = load i32, ptr %7, align 4, !tbaa !3
  %54 = load i32, ptr %8, align 4, !tbaa !3
  br i1 %.not76, label %57, label %55

55:                                               ; preds = %52
  %56 = call fastcc i32 @wolfssl_set_tmp_dh(ptr noundef nonnull %1, ptr noundef nonnull %34, i32 noundef %53, ptr noundef nonnull %35, i32 noundef %54)
  br label %59

57:                                               ; preds = %52
  %58 = call fastcc i32 @wolfssl_ctx_set_tmp_dh(ptr noundef %0, ptr noundef nonnull %34, i32 noundef %53, ptr noundef nonnull %35, i32 noundef %54)
  br label %59

59:                                               ; preds = %57, %55
  %.4 = phi i32 [ %56, %55 ], [ %58, %57 ]
  call void @FreeDer(ptr noundef nonnull %6) #22
  %.not77 = icmp eq i32 %.4, 1
  br i1 %.not77, label %63, label %.thread116

.thread126:                                       ; preds = %.thread96, %42
  %.4.ph.ph = phi i32 [ %43, %42 ], [ -462, %.thread96 ]
  call void @FreeDer(ptr noundef nonnull %6) #22
  br label %.thread116

60:                                               ; preds = %45
  call void @FreeDer(ptr noundef nonnull %6) #22
  %.not78 = icmp eq ptr %34, null
  br i1 %.not78, label %61, label %.thread116

.thread116:                                       ; preds = %59, %.thread126, %60
  %.4110121 = phi i32 [ -125, %60 ], [ %.4.ph.ph, %.thread126 ], [ %.4, %59 ]
  call void @wolfSSL_Free(ptr noundef nonnull %34) #22
  br label %61

61:                                               ; preds = %.thread116, %60
  %.4110122 = phi i32 [ %.4110121, %.thread116 ], [ -125, %60 ]
  %.not79 = icmp eq ptr %35, null
  br i1 %.not79, label %63, label %62

62:                                               ; preds = %61
  call void @wolfSSL_Free(ptr noundef nonnull %35) #22
  br label %63

63:                                               ; preds = %.thread136, %61, %62, %59
  %.4111 = phi i32 [ %.4110122, %61 ], [ %.4110122, %62 ], [ 1, %59 ], [ %.1, %.thread136 ]
  call void @llvm.lifetime.end.p0(i64 4, ptr nonnull %8) #22
  call void @llvm.lifetime.end.p0(i64 4, ptr nonnull %7) #22
  call void @llvm.lifetime.end.p0(i64 8, ptr nonnull %6) #22
  ret i32 %.4111
}